; Function Attrs: nounwind uwtable
define internal fastcc i32 @pqSocketCheck(ptr noundef %0, i32 noundef %1, i32 noundef %2, i64 noundef %3) unnamed_addr #2 {
  %5 = alloca %struct.timeval, align 8
  %6 = alloca %struct.pollfd, align 4
  %7 = alloca [256 x i8], align 16
  %.not = icmp eq ptr %0, null
  br i1 %.not, label %.critedge19, label %8

8:                                                ; preds = %4
  %9 = getelementptr inbounds nuw i8, ptr %0, i64 864
  %10 = load i32, ptr %9, align 8
  %.not18 = icmp eq i32 %10, -1
  br i1 %.not18, label %11, label %16

11:                                               ; preds = %8
  %12 = getelementptr inbounds nuw i8, ptr %0, i64 520
  %13 = load i32, ptr %12, align 8
  %14 = icmp eq i32 %13, -1
  br i1 %14, label %15, label %16

15:                                               ; preds = %11
  tail call void (ptr, ptr, ...) @libpq_append_conn_error(ptr noundef nonnull %0, ptr noundef nonnull @.str.9)
  br label %.critedge19

16:                                               ; preds = %8, %11
  %.0 = phi i32 [ %13, %11 ], [ %10, %8 ]
  %17 = or i32 %2, %1
  %or.cond.not.i = icmp eq i32 %17, 0
  %18 = getelementptr inbounds nuw i8, ptr %6, i64 4
  %19 = getelementptr inbounds nuw i8, ptr %6, i64 6
  %.not17.not.i = icmp eq i32 %2, 0
  %.not.not.i = icmp eq i32 %1, 0
  %20 = select i1 %.not.not.i, i16 12, i16 13
  %simplifycfg.merge.i = select i1 %.not17.not.i, i16 9, i16 %20
  %21 = getelementptr inbounds nuw i8, ptr %5, i64 8
  br i1 %or.cond.not.i, label %.critedge19, label %.split

.split:                                           ; preds = %16
  switch i64 %3, label %.split.split [
    i64 -1, label %PQsocketPoll.exit.us
    i64 0, label %PQsocketPoll.exit.us26
  ]

PQsocketPoll.exit.us:                             ; preds = %.split, %24
  call void @llvm.lifetime.start.p0(i64 8, ptr nonnull %6) #19
  store i32 %.0, ptr %6, align 4
  store i16 0, ptr %19, align 2
  store i16 %simplifycfg.merge.i, ptr %18, align 4
  %22 = call i32 @poll(ptr noundef nonnull %6, i64 noundef 1, i32 noundef -1) #19
  call void @llvm.lifetime.end.p0(i64 8, ptr nonnull %6) #19
  %23 = icmp slt i32 %22, 0
  br i1 %23, label %24, label %.critedge19

24:                                               ; preds = %PQsocketPoll.exit.us
  %25 = tail call ptr @__errno_location() #21
  %26 = load i32, ptr %25, align 4
  %27 = icmp eq i32 %26, 4
  br i1 %27, label %PQsocketPoll.exit.us, label %.critedge, !llvm.loop !13

PQsocketPoll.exit.us26:                           ; preds = %.split, %30
  call void @llvm.lifetime.start.p0(i64 8, ptr nonnull %6) #19
  store i32 %.0, ptr %6, align 4
  store i16 0, ptr %19, align 2
  store i16 %simplifycfg.merge.i, ptr %18, align 4
  %28 = call i32 @poll(ptr noundef nonnull %6, i64 noundef 1, i32 noundef 0) #19
  call void @llvm.lifetime.end.p0(i64 8, ptr nonnull %6) #19
  %29 = icmp slt i32 %28, 0
  br i1 %29, label %30, label %.critedge19

30:                                               ; preds = %PQsocketPoll.exit.us26
  %31 = tail call ptr @__errno_location() #21
  %32 = load i32, ptr %31, align 4
  %33 = icmp eq i32 %32, 4
  br i1 %33, label %PQsocketPoll.exit.us26, label %.critedge, !llvm.loop !13

.split.split:                                     ; preds = %.split, %46
  call void @llvm.lifetime.start.p0(i64 8, ptr nonnull %6) #19
  store i32 %.0, ptr %6, align 4
  store i16 0, ptr %19, align 2
  store i16 %simplifycfg.merge.i, ptr %18, align 4
  call void @llvm.lifetime.start.p0(i64 16, ptr nonnull %5) #19
  %34 = call i32 @gettimeofday(ptr noundef nonnull %5, ptr noundef null) #19
  %35 = load i64, ptr %5, align 8
  %36 = mul i64 %35, 1000000
  %37 = load i64, ptr %21, align 8
  %38 = add i64 %36, %37
  call void @llvm.lifetime.end.p0(i64 16, ptr nonnull %5) #19
  %39 = icmp sgt i64 %3, %38
  br i1 %39, label %40, label %PQsocketPoll.exit

40:                                               ; preds = %.split.split
  %41 = sub i64 %3, %38
  %42 = sdiv i64 %41, 1000
  %43 = trunc i64 %42 to i32
  br label %PQsocketPoll.exit

PQsocketPoll.exit:                                ; preds = %.split.split, %40
  %.014.i = phi i32 [ %43, %40 ], [ 0, %.split.split ]
  %44 = call i32 @poll(ptr noundef nonnull %6, i64 noundef 1, i32 noundef %.014.i) #19
  call void @llvm.lifetime.end.p0(i64 8, ptr nonnull %6) #19
  %45 = icmp slt i32 %44, 0
  br i1 %45, label %46, label %.critedge19

46:                                               ; preds = %PQsocketPoll.exit
  %47 = tail call ptr @__errno_location() #21
  %48 = load i32, ptr %47, align 4
  %49 = icmp eq i32 %48, 4
  br i1 %49, label %.split.split, label %.critedge, !llvm.loop !13

.critedge:                                        ; preds = %30, %24, %46
  %50 = phi i32 [ %48, %46 ], [ %26, %24 ], [ %32, %30 ]
  %.us-phi24 = phi i32 [ %44, %46 ], [ %22, %24 ], [ %28, %30 ]
  call void @llvm.lifetime.start.p0(i64 256, ptr nonnull %7) #19
  %51 = call ptr @pg_strerror_r(i32 noundef %50, ptr noundef nonnull %7, i64 noundef 256) #19
  call void (ptr, ptr, ...) @libpq_append_conn_error(ptr noundef nonnull %0, ptr noundef nonnull @.str.10, ptr noundef nonnull @.str.11, ptr noundef %51)
  call void @llvm.lifetime.end.p0(i64 256, ptr nonnull %7) #19
  br label %.critedge19

.critedge19:                                      ; preds = %PQsocketPoll.exit.us26, %PQsocketPoll.exit.us, %PQsocketPoll.exit, %16, %.critedge, %4, %15
  %.014 = phi i32 [ -1, %15 ], [ -1, %4 ], [ %.us-phi24, %.critedge ], [ 0, %16 ], [ %44, %PQsocketPoll.exit ], [ %22, %PQsocketPoll.exit.us ], [ %28, %PQsocketPoll.exit.us26 ]
  ret i32 %.014
}